; Function Attrs: nofree norecurse nosync nounwind memory(none) uwtable
define ptr @OCSP_response_status_str(i64 noundef %0) local_unnamed_addr #0 {
  br label %2

2:                                                ; preds = %8, %1
  %.011.i = phi i64 [ 0, %1 ], [ %9, %8 ]
  %.0810.i = phi ptr [ @OCSP_response_status_str.rstat_tbl, %1 ], [ %10, %8 ]
  %3 = load i64, ptr %.0810.i, align 8, !tbaa !3
  %4 = icmp eq i64 %3, %0
  br i1 %4, label %5, label %8

5:                                                ; preds = %2
  %6 = getelementptr inbounds nuw i8, ptr %.0810.i, i64 8
  %7 = load ptr, ptr %6, align 8, !tbaa !10
  br label %do_table2string.exit

8:                                                ; preds = %2
  %9 = add nuw nsw i64 %.011.i, 1
  %10 = getelementptr inbounds nuw i8, ptr %.0810.i, i64 16
  %exitcond.not.i = icmp eq i64 %9, 6
  br i1 %exitcond.not.i, label %do_table2string.exit, label %2, !llvm.loop !11

do_table2string.exit:                             ; preds = %8, %5
  %.07.i = phi ptr [ %7, %5 ], [ @.str.41, %8 ]
  ret ptr %.07.i
}